; Function Attrs: nofree nounwind uwtable
define zeroext i1 @pmix_fd_is_chardev(i32 noundef %0) local_unnamed_addr #0 {
  %2 = alloca %struct.stat, align 8
  call void @llvm.lifetime.start.p0(i64 144, ptr nonnull %2) #10
  %3 = call i32 @fstat(i32 noundef %0, ptr noundef nonnull %2) #10
  %.not = icmp eq i32 %3, 0
  %4 = getelementptr inbounds nuw i8, ptr %2, i64 24
  %5 = load i32, ptr %4, align 8
  %6 = and i32 %5, 61440
  %7 = icmp eq i32 %6, 8192
  %.0 = select i1 %.not, i1 %7, i1 false
  call void @llvm.lifetime.end.p0(i64 144, ptr nonnull %2) #10
  ret i1 %.0
}